target datalayout = "e-m:e-p270:32:32-p271:32:32-p272:64:64-i64:64-i128:128-f80:128-n8:16:32:64-S128"
target triple = "x86_64-pc-linux-gnu"

%struct.mz_zip_archive_tag = type { i64, i64, i32, i32, i32, ptr, ptr, ptr, ptr, ptr, ptr, ptr, ptr }
%struct.mz_zip_internal_state_tag = type { %struct.mz_zip_array, %struct.mz_zip_array, %struct.mz_zip_array, ptr, ptr, i64, i64 }
%struct.mz_zip_array = type { ptr, i64, i64, i32 }

; Function Attrs: mustprogress uwtable
define i32 @mz_zip_reader_end(ptr noundef %0) #5 {
  %2 = alloca ptr, align 8
  %3 = alloca ptr, align 8
  %4 = alloca ptr, align 8
  %5 = alloca ptr, align 8
  %6 = alloca ptr, align 8
  %7 = alloca ptr, align 8
  %8 = alloca i32, align 4
  %9 = alloca ptr, align 8
  %10 = alloca ptr, align 8
  store ptr %0, ptr %9, align 8
  %11 = load ptr, ptr %9, align 8
  %12 = icmp ne ptr %11, null
  br i1 %12, label %13, label %33

13:                                               ; preds = %1
  %14 = load ptr, ptr %9, align 8
  %15 = getelementptr inbounds %struct.mz_zip_archive_tag, ptr %14, i32 0, i32 12
  %16 = load ptr, ptr %15, align 8
  %17 = icmp ne ptr %16, null
  br i1 %17, label %18, label %33

18:                                               ; preds = %13
  %19 = load ptr, ptr %9, align 8
  %20 = getelementptr inbounds %struct.mz_zip_archive_tag, ptr %19, i32 0, i32 5
  %21 = load ptr, ptr %20, align 8
  %22 = icmp ne ptr %21, null
  br i1 %22, label %23, label %33

23:                                               ; preds = %18
  %24 = load ptr, ptr %9, align 8
  %25 = getelementptr inbounds %struct.mz_zip_archive_tag, ptr %24, i32 0, i32 6
  %26 = load ptr, ptr %25, align 8
  %27 = icmp ne ptr %26, null
  br i1 %27, label %28, label %33

28:                                               ; preds = %23
  %29 = load ptr, ptr %9, align 8
  %30 = getelementptr inbounds %struct.mz_zip_archive_tag, ptr %29, i32 0, i32 3
  %31 = load i32, ptr %30, align 4
  %32 = icmp ne i32 %31, 1
  br i1 %32, label %33, label %34

33:                                               ; preds = %28, %23, %18, %13, %1
  store i32 0, ptr %8, align 4
  br label %103

34:                                               ; preds = %28
  %35 = load ptr, ptr %9, align 8
  %36 = getelementptr inbounds %struct.mz_zip_archive_tag, ptr %35, i32 0, i32 12
  %37 = load ptr, ptr %36, align 8
  %38 = icmp ne ptr %37, null
  br i1 %38, label %39, label %100

39:                                               ; preds = %34
  %40 = load ptr, ptr %9, align 8
  %41 = getelementptr inbounds %struct.mz_zip_archive_tag, ptr %40, i32 0, i32 12
  %42 = load ptr, ptr %41, align 8
  store ptr %42, ptr %10, align 8
  %43 = load ptr, ptr %9, align 8
  %44 = getelementptr inbounds %struct.mz_zip_archive_tag, ptr %43, i32 0, i32 12
  store ptr null, ptr %44, align 8
  %45 = load ptr, ptr %9, align 8
  %46 = load ptr, ptr %10, align 8
  %47 = getelementptr inbounds %struct.mz_zip_internal_state_tag, ptr %46, i32 0, i32 0
  store ptr %45, ptr %2, align 8
  store ptr %47, ptr %3, align 8
  %48 = load ptr, ptr %2, align 8
  %49 = getelementptr inbounds %struct.mz_zip_archive_tag, ptr %48, i32 0, i32 6
  %50 = load ptr, ptr %49, align 8
  %51 = load ptr, ptr %2, align 8
  %52 = getelementptr inbounds %struct.mz_zip_archive_tag, ptr %51, i32 0, i32 8
  %53 = load ptr, ptr %52, align 8
  %54 = load ptr, ptr %3, align 8
  %55 = load ptr, ptr %54, align 8
  call void %50(ptr noundef %53, ptr noundef %55)
  %56 = load ptr, ptr %3, align 8
  call void @llvm.memset.p0.i64(ptr align 8 %56, i8 0, i64 32, i1 false)
  %57 = load ptr, ptr %9, align 8
  %58 = load ptr, ptr %10, align 8
  %59 = getelementptr inbounds %struct.mz_zip_internal_state_tag, ptr %58, i32 0, i32 1
  store ptr %57, ptr %4, align 8
  store ptr %59, ptr %5, align 8
  %60 = load ptr, ptr %4, align 8
  %61 = getelementptr inbounds %struct.mz_zip_archive_tag, ptr %60, i32 0, i32 6
  %62 = load ptr, ptr %61, align 8
  %63 = load ptr, ptr %4, align 8
  %64 = getelementptr inbounds %struct.mz_zip_archive_tag, ptr %63, i32 0, i32 8
  %65 = load ptr, ptr %64, align 8
  %66 = load ptr, ptr %5, align 8
  %67 = load ptr, ptr %66, align 8
  call void %62(ptr noundef %65, ptr noundef %67)
  %68 = load ptr, ptr %5, align 8
  call void @llvm.memset.p0.i64(ptr align 8 %68, i8 0, i64 32, i1 false)
  %69 = load ptr, ptr %9, align 8
  %70 = load ptr, ptr %10, align 8
  %71 = getelementptr inbounds %struct.mz_zip_internal_state_tag, ptr %70, i32 0, i32 2
  store ptr %69, ptr %6, align 8
  store ptr %71, ptr %7, align 8
  %72 = load ptr, ptr %6, align 8
  %73 = getelementptr inbounds %struct.mz_zip_archive_tag, ptr %72, i32 0, i32 6
  %74 = load ptr, ptr %73, align 8
  %75 = load ptr, ptr %6, align 8
  %76 = getelementptr inbounds %struct.mz_zip_archive_tag, ptr %75, i32 0, i32 8
  %77 = load ptr, ptr %76, align 8
  %78 = load ptr, ptr %7, align 8
  %79 = load ptr, ptr %78, align 8
  call void %74(ptr noundef %77, ptr noundef %79)
  %80 = load ptr, ptr %7, align 8
  call void @llvm.memset.p0.i64(ptr align 8 %80, i8 0, i64 32, i1 false)
  %81 = load ptr, ptr %10, align 8
  %82 = getelementptr inbounds %struct.mz_zip_internal_state_tag, ptr %81, i32 0, i32 3
  %83 = load ptr, ptr %82, align 8
  %84 = icmp ne ptr %83, null
  br i1 %84, label %85, label %92

85:                                               ; preds = %39
  %86 = load ptr, ptr %10, align 8
  %87 = getelementptr inbounds %struct.mz_zip_internal_state_tag, ptr %86, i32 0, i32 3
  %88 = load ptr, ptr %87, align 8
  %89 = call i32 @fclose(ptr noundef %88)
  %90 = load ptr, ptr %10, align 8
  %91 = getelementptr inbounds %struct.mz_zip_internal_state_tag, ptr %90, i32 0, i32 3
  store ptr null, ptr %91, align 8
  br label %92

92:                                               ; preds = %85, %39
  %93 = load ptr, ptr %9, align 8
  %94 = getelementptr inbounds %struct.mz_zip_archive_tag, ptr %93, i32 0, i32 6
  %95 = load ptr, ptr %94, align 8
  %96 = load ptr, ptr %9, align 8
  %97 = getelementptr inbounds %struct.mz_zip_archive_tag, ptr %96, i32 0, i32 8
  %98 = load ptr, ptr %97, align 8
  %99 = load ptr, ptr %10, align 8
  call void %95(ptr noundef %98, ptr noundef %99)
  br label %100

100:                                              ; preds = %92, %34
  %101 = load ptr, ptr %9, align 8
  %102 = getelementptr inbounds %struct.mz_zip_archive_tag, ptr %101, i32 0, i32 3
  store i32 0, ptr %102, align 4
  store i32 1, ptr %8, align 4
  br label %103

103:                                              ; preds = %100, %33
  %104 = load i32, ptr %8, align 4
  ret i32 %104
}