; Function Attrs: mustprogress uwtable
define noundef i32 @mz_zip_reader_end(ptr noundef %0) local_unnamed_addr #9 {
  %.not = icmp eq ptr %0, null
  br i1 %.not, label %33, label %2

2:                                                ; preds = %1
  %3 = getelementptr inbounds i8, ptr %0, i64 88
  %4 = load ptr, ptr %3, align 8
  %.not36 = icmp eq ptr %4, null
  br i1 %.not36, label %33, label %5

5:                                                ; preds = %2
  %6 = getelementptr inbounds i8, ptr %0, i64 32
  %7 = load ptr, ptr %6, align 8
  %.not37 = icmp eq ptr %7, null
  br i1 %.not37, label %33, label %8

8:                                                ; preds = %5
  %9 = getelementptr inbounds i8, ptr %0, i64 40
  %10 = load ptr, ptr %9, align 8
  %.not38 = icmp eq ptr %10, null
  br i1 %.not38, label %33, label %11

11:                                               ; preds = %8
  %12 = getelementptr inbounds i8, ptr %0, i64 20
  %13 = load i32, ptr %12, align 4
  %.not39 = icmp eq i32 %13, 1
  br i1 %.not39, label %14, label %33

14:                                               ; preds = %11
  store ptr null, ptr %3, align 8
  %15 = getelementptr inbounds i8, ptr %0, i64 56
  %16 = load ptr, ptr %15, align 8
  %17 = load ptr, ptr %4, align 8
  tail call void %10(ptr noundef %16, ptr noundef %17)
  tail call void @llvm.memset.p0.i64(ptr noundef nonnull align 8 dereferenceable(32) %4, i8 0, i64 32, i1 false)
  %18 = getelementptr inbounds i8, ptr %4, i64 32
  %19 = load ptr, ptr %9, align 8
  %20 = load ptr, ptr %15, align 8
  %21 = load ptr, ptr %18, align 8
  tail call void %19(ptr noundef %20, ptr noundef %21)
  tail call void @llvm.memset.p0.i64(ptr noundef nonnull align 8 dereferenceable(32) %18, i8 0, i64 32, i1 false)
  %22 = getelementptr inbounds i8, ptr %4, i64 64
  %23 = load ptr, ptr %9, align 8
  %24 = load ptr, ptr %15, align 8
  %25 = load ptr, ptr %22, align 8
  tail call void %23(ptr noundef %24, ptr noundef %25)
  tail call void @llvm.memset.p0.i64(ptr noundef nonnull align 8 dereferenceable(32) %22, i8 0, i64 32, i1 false)
  %26 = getelementptr inbounds i8, ptr %4, i64 96
  %27 = load ptr, ptr %26, align 8
  %.not40 = icmp eq ptr %27, null
  br i1 %.not40, label %30, label %28

28:                                               ; preds = %14
  %29 = tail call i32 @fclose(ptr noundef nonnull %27)
  store ptr null, ptr %26, align 8
  br label %30

30:                                               ; preds = %28, %14
  %31 = load ptr, ptr %9, align 8
  %32 = load ptr, ptr %15, align 8
  tail call void %31(ptr noundef %32, ptr noundef nonnull %4)
  store i32 0, ptr %12, align 4
  br label %33

33:                                               ; preds = %1, %2, %5, %8, %11, %30
  %.0 = phi i32 [ 1, %30 ], [ 0, %11 ], [ 0, %8 ], [ 0, %5 ], [ 0, %2 ], [ 0, %1 ]
  ret i32 %.0
}